; Function Attrs: nounwind uwtable
define i32 @EVP_MD_CTX_set_params(ptr noundef readonly captures(none) %0, ptr noundef %1) local_unnamed_addr #0 {
  %3 = getelementptr inbounds nuw i8, ptr %0, i64 40
  %4 = load ptr, ptr %3, align 8, !tbaa !26
  %.not = icmp eq ptr %4, null
  br i1 %.not, label %17, label %5

5:                                                ; preds = %2
  %6 = load i32, ptr %4, align 8, !tbaa !31
  switch i32 %6, label %17 [
    i32 256, label %7
    i32 128, label %7
  ]

7:                                                ; preds = %5, %5
  %8 = getelementptr inbounds nuw i8, ptr %4, i64 48
  %9 = load ptr, ptr %8, align 8, !tbaa !40
  %.not20 = icmp eq ptr %9, null
  br i1 %.not20, label %17, label %10

10:                                               ; preds = %7
  %11 = getelementptr inbounds nuw i8, ptr %4, i64 40
  %12 = load ptr, ptr %11, align 8, !tbaa !40
  %13 = getelementptr inbounds nuw i8, ptr %12, i64 272
  %14 = load ptr, ptr %13, align 8, !tbaa !57
  %.not21 = icmp eq ptr %14, null
  br i1 %.not21, label %17, label %15

15:                                               ; preds = %10
  %16 = tail call i32 %14(ptr noundef nonnull %9, ptr noundef %1) #8
  br label %27

17:                                               ; preds = %5, %10, %7, %2
  %18 = getelementptr inbounds nuw i8, ptr %0, i64 8
  %19 = load ptr, ptr %18, align 8, !tbaa !12
  %.not22 = icmp eq ptr %19, null
  br i1 %.not22, label %27, label %20

20:                                               ; preds = %17
  %21 = getelementptr inbounds nuw i8, ptr %19, i64 208
  %22 = load ptr, ptr %21, align 8, !tbaa !60
  %.not23 = icmp eq ptr %22, null
  br i1 %.not23, label %27, label %23

23:                                               ; preds = %20
  %24 = getelementptr inbounds nuw i8, ptr %0, i64 56
  %25 = load ptr, ptr %24, align 8, !tbaa !3
  %26 = tail call i32 %22(ptr noundef %25, ptr noundef %1) #8
  br label %27

27:                                               ; preds = %17, %20, %23, %15
  %.0 = phi i32 [ %16, %15 ], [ %26, %23 ], [ 0, %20 ], [ 0, %17 ]
  ret i32 %.0
}